; Function Attrs: mustprogress uwtable
define noundef ptr @uset_openEmpty_77() local_unnamed_addr #0 personality ptr @__gxx_personality_v0 {
  %1 = tail call noundef ptr @_ZN6icu_777UMemorynwEm(i64 noundef 200) #10
  %2 = icmp eq ptr %1, null
  br i1 %2, label %4, label %3

3:                                                ; preds = %0
  invoke void @_ZN6icu_7710UnicodeSetC1Ev(ptr noundef nonnull align 8 dereferenceable(200) %1)
          to label %4 unwind label %5

4:                                                ; preds = %3, %0
  ret ptr %1

5:                                                ; preds = %3
  %6 = landingpad { ptr, i32 }
          cleanup
  tail call void @_ZN6icu_777UMemorydlEPv(ptr noundef nonnull %1) #10
  resume { ptr, i32 } %6
}